target datalayout = "e-m:e-p270:32:32-p271:32:32-p272:64:64-i64:64-i128:128-f80:128-n8:16:32:64-S128"
target triple = "x86_64-unknown-linux-gnu"

%struct.USBDesc = type { %struct.USBDescID, ptr, ptr, ptr, ptr, ptr }
%struct.USBDescID = type { i16, i16, i16, i8, i8, i8 }
%struct.VMStateDescription = type { ptr, i8, i8, i32, i32, i32, ptr, ptr, ptr, ptr, ptr, ptr, ptr, ptr }
%struct.USBDeviceClass = type { %struct.DeviceClass, ptr, ptr, ptr, ptr, ptr, ptr, ptr, ptr, ptr, ptr, ptr, ptr, ptr, ptr, ptr, i8 }
%struct.DeviceClass = type { %struct.ObjectClass, [1 x i64], ptr, ptr, ptr, i8, i8, ptr, ptr, ptr, ptr, ptr }
%struct.ObjectClass = type { ptr, ptr, [4 x ptr], [4 x ptr], ptr, ptr }

@.str.2 = private unnamed_addr constant [11 x i8] c"usb-device\00", align 1
@.str.3 = private unnamed_addr constant [23 x i8] c"QEMU PenPartner Tablet\00", align 1
@desc_wacom = internal constant %struct.USBDesc { %struct.USBDescID { i16 1386, i16 0, i16 16912, i8 1, i8 2, i8 3 }, ptr @desc_device_wacom, ptr null, ptr null, ptr @desc_strings, ptr null }, align 8
@vmstate_usb_wacom = internal constant %struct.VMStateDescription { ptr @.str.16, i8 1, i8 0, i32 0, i32 0, i32 0, ptr null, ptr null, ptr null, ptr null, ptr null, ptr null, ptr null, ptr null }, align 8
@.str.4 = private unnamed_addr constant [7 x i8] c"device\00", align 1
@.str.5 = private unnamed_addr constant [101 x i8] c"/home/dtcxzyw/WorkSpace/Projects/compilers/llvm-opt-benchmark/bench/qemu/qemu/include/hw/qdev-core.h\00", align 1
@__func__.DEVICE_CLASS = private unnamed_addr constant [13 x i8] c"DEVICE_CLASS\00", align 1
@.str.6 = private unnamed_addr constant [95 x i8] c"/home/dtcxzyw/WorkSpace/Projects/compilers/llvm-opt-benchmark/bench/qemu/qemu/include/hw/usb.h\00", align 1
@__func__.USB_DEVICE_CLASS = private unnamed_addr constant [17 x i8] c"USB_DEVICE_CLASS\00", align 1

; Function Attrs: nounwind sspstrong uwtable
define internal void @set_bit(i64 noundef %nr, ptr noundef %addr) #0 {
entry:
  %nr.addr = alloca i64, align 8
  %addr.addr = alloca ptr, align 8
  %mask = alloca i64, align 8
  %p = alloca ptr, align 8
  store i64 %nr, ptr %nr.addr, align 8
  store ptr %addr, ptr %addr.addr, align 8
  %0 = load i64, ptr %nr.addr, align 8
  %rem = urem i64 %0, 64
  %shl = shl i64 1, %rem
  store i64 %shl, ptr %mask, align 8
  %1 = load ptr, ptr %addr.addr, align 8
  %2 = load i64, ptr %nr.addr, align 8
  %div = udiv i64 %2, 64
  %add.ptr = getelementptr i64, ptr %1, i64 %div
  store ptr %add.ptr, ptr %p, align 8
  %3 = load i64, ptr %mask, align 8
  %4 = load ptr, ptr %p, align 8
  %5 = load i64, ptr %4, align 8
  %or = or i64 %5, %3
  store i64 %or, ptr %4, align 8
  ret void
}

; Function Attrs: nounwind sspstrong uwtable
define internal ptr @USB_DEVICE_CLASS(ptr noundef %klass) #0 {
entry:
  %klass.addr = alloca ptr, align 8
  store ptr %klass, ptr %klass.addr, align 8
  %0 = load ptr, ptr %klass.addr, align 8
  %call = call ptr @object_class_dynamic_cast_assert(ptr noundef %0, ptr noundef @.str.2, ptr noundef @.str.6, i32 noundef 270, ptr noundef @__func__.USB_DEVICE_CLASS)
  ret ptr %call
}

; Function Attrs: nounwind sspstrong uwtable
define internal ptr @DEVICE_CLASS(ptr noundef %klass) #0 {
entry:
  %klass.addr = alloca ptr, align 8
  store ptr %klass, ptr %klass.addr, align 8
  %0 = load ptr, ptr %klass.addr, align 8
  %call = call ptr @object_class_dynamic_cast_assert(ptr noundef %0, ptr noundef @.str.4, ptr noundef @.str.5, i32 noundef 77, ptr noundef @__func__.DEVICE_CLASS)
  ret ptr %call
}

; Function Attrs: nounwind sspstrong uwtable
define internal void @usb_wacom_class_init(ptr noundef %klass, ptr noundef %data) #0 {
entry:
  %klass.addr = alloca ptr, align 8
  %data.addr = alloca ptr, align 8
  %dc = alloca ptr, align 8
  %uc = alloca ptr, align 8
  store ptr %klass, ptr %klass.addr, align 8
  store ptr %data, ptr %data.addr, align 8
  %0 = load ptr, ptr %klass.addr, align 8
  %call = call ptr @DEVICE_CLASS(ptr noundef %0)
  store ptr %call, ptr %dc, align 8
  %1 = load ptr, ptr %klass.addr, align 8
  %call1 = call ptr @USB_DEVICE_CLASS(ptr noundef %1)
  store ptr %call1, ptr %uc, align 8
  %2 = load ptr, ptr %uc, align 8
  %product_desc = getelementptr inbounds %struct.USBDeviceClass, ptr %2, i32 0, i32 14
  store ptr @.str.3, ptr %product_desc, align 8
  %3 = load ptr, ptr %uc, align 8
  %usb_desc = getelementptr inbounds %struct.USBDeviceClass, ptr %3, i32 0, i32 15
  store ptr @desc_wacom, ptr %usb_desc, align 8
  %4 = load ptr, ptr %uc, align 8
  %realize = getelementptr inbounds %struct.USBDeviceClass, ptr %4, i32 0, i32 1
  store ptr @usb_wacom_realize, ptr %realize, align 8
  %5 = load ptr, ptr %uc, align 8
  %handle_reset = getelementptr inbounds %struct.USBDeviceClass, ptr %5, i32 0, i32 6
  store ptr @usb_wacom_handle_reset, ptr %handle_reset, align 8
  %6 = load ptr, ptr %uc, align 8
  %handle_control = getelementptr inbounds %struct.USBDeviceClass, ptr %6, i32 0, i32 7
  store ptr @usb_wacom_handle_control, ptr %handle_control, align 8
  %7 = load ptr, ptr %uc, align 8
  %handle_data = getelementptr inbounds %struct.USBDeviceClass, ptr %7, i32 0, i32 8
  store ptr @usb_wacom_handle_data, ptr %handle_data, align 8
  %8 = load ptr, ptr %uc, align 8
  %unrealize = getelementptr inbounds %struct.USBDeviceClass, ptr %8, i32 0, i32 2
  store ptr @usb_wacom_unrealize, ptr %unrealize, align 8
  %9 = load ptr, ptr %dc, align 8
  %categories = getelementptr inbounds %struct.DeviceClass, ptr %9, i32 0, i32 1
  %arraydecay = getelementptr inbounds [1 x i64], ptr %categories, i64 0, i64 0
  call void @set_bit(i64 noundef 4, ptr noundef %arraydecay)
  %10 = load ptr, ptr %dc, align 8
  %desc = getelementptr inbounds %struct.DeviceClass, ptr %10, i32 0, i32 3
  store ptr @.str.3, ptr %desc, align 8
  %11 = load ptr, ptr %dc, align 8
  %vmsd = getelementptr inbounds %struct.DeviceClass, ptr %11, i32 0, i32 10
  store ptr @vmstate_usb_wacom, ptr %vmsd, align 8
  ret void
}