; Function Attrs: nounwind sspstrong uwtable
define internal void @usb_wacom_class_init(ptr noundef %klass, ptr readnone captures(none) %data) #0 {
entry:
  %call.i = tail call ptr @object_class_dynamic_cast_assert(ptr noundef %klass, ptr noundef nonnull @.str.4, ptr noundef nonnull @.str.5, i32 noundef 77, ptr noundef nonnull @__func__.DEVICE_CLASS) #7
  %call.i10 = tail call ptr @object_class_dynamic_cast_assert(ptr noundef %klass, ptr noundef nonnull @.str.2, ptr noundef nonnull @.str.6, i32 noundef 270, ptr noundef nonnull @__func__.USB_DEVICE_CLASS) #7
  %product_desc = getelementptr inbounds nuw i8, ptr %call.i10, i64 280
  store ptr @.str.3, ptr %product_desc, align 8
  %usb_desc = getelementptr inbounds nuw i8, ptr %call.i10, i64 288
  store ptr @desc_wacom, ptr %usb_desc, align 8
  %realize = getelementptr inbounds nuw i8, ptr %call.i10, i64 176
  store ptr @usb_wacom_realize, ptr %realize, align 8
  %handle_reset = getelementptr inbounds nuw i8, ptr %call.i10, i64 216
  store ptr @usb_wacom_handle_reset, ptr %handle_reset, align 8
  %handle_control = getelementptr inbounds nuw i8, ptr %call.i10, i64 224
  store ptr @usb_wacom_handle_control, ptr %handle_control, align 8
  %handle_data = getelementptr inbounds nuw i8, ptr %call.i10, i64 232
  store ptr @usb_wacom_handle_data, ptr %handle_data, align 8
  %unrealize = getelementptr inbounds nuw i8, ptr %call.i10, i64 184
  store ptr @usb_wacom_unrealize, ptr %unrealize, align 8
  %categories = getelementptr inbounds nuw i8, ptr %call.i, i64 96
  %0 = load i64, ptr %categories, align 8
  %or.i = or i64 %0, 16
  store i64 %or.i, ptr %categories, align 8
  %desc = getelementptr inbounds nuw i8, ptr %call.i, i64 112
  store ptr @.str.3, ptr %desc, align 8
  %vmsd = getelementptr inbounds nuw i8, ptr %call.i, i64 160
  store ptr @vmstate_usb_wacom, ptr %vmsd, align 8
  ret void
}